
NVIC_V1.elf:     file format elf32-littlearm

Sections:
Idx Name          Size      VMA       LMA       File off  Algn
  0 .isr_vector   00000130  08000000  08000000  00010000  2**0
                  CONTENTS, ALLOC, LOAD, READONLY, DATA
  1 .text         000006d4  08000130  08000130  00010130  2**2
                  CONTENTS, ALLOC, LOAD, READONLY, CODE
  2 .rodata       00000000  08000804  08000804  00020010  2**0
                  CONTENTS, ALLOC, LOAD, DATA
  3 .ARM.extab    00000000  08000804  08000804  00020010  2**0
                  CONTENTS
  4 .ARM          00000000  08000804  08000804  00020010  2**0
                  CONTENTS
  5 .preinit_array 00000000  08000804  08000804  00020010  2**0
                  CONTENTS, ALLOC, LOAD, DATA
  6 .init_array   00000004  08000804  08000804  00010804  2**2
                  CONTENTS, ALLOC, LOAD, DATA
  7 .fini_array   00000004  08000808  08000808  00010808  2**2
                  CONTENTS, ALLOC, LOAD, DATA
  8 .data         00000010  20000000  0800080c  00020000  2**2
                  CONTENTS, ALLOC, LOAD, DATA
  9 .bss          00000024  20000010  0800081c  00020010  2**2
                  ALLOC
 10 ._user_heap_stack 00000604  20000034  0800081c  00020034  2**0
                  ALLOC
 11 .ARM.attributes 00000029  00000000  00000000  00020010  2**0
                  CONTENTS, READONLY
 12 .debug_info   00000e31  00000000  00000000  00020039  2**0
                  CONTENTS, READONLY, DEBUGGING
 13 .debug_abbrev 000004df  00000000  00000000  00020e6a  2**0
                  CONTENTS, READONLY, DEBUGGING
 14 .debug_aranges 00000178  00000000  00000000  00021350  2**3
                  CONTENTS, READONLY, DEBUGGING
 15 .debug_ranges 00000120  00000000  00000000  000214c8  2**3
                  CONTENTS, READONLY, DEBUGGING
 16 .debug_macro  00000756  00000000  00000000  000215e8  2**0
                  CONTENTS, READONLY, DEBUGGING
 17 .debug_line   0000084a  00000000  00000000  00021d3e  2**0
                  CONTENTS, READONLY, DEBUGGING
 18 .debug_str    00004131  00000000  00000000  00022588  2**0
                  CONTENTS, READONLY, DEBUGGING
 19 .comment      0000007b  00000000  00000000  000266b9  2**0
                  CONTENTS, READONLY
 20 .debug_frame  00000480  00000000  00000000  00026734  2**2
                  CONTENTS, READONLY, DEBUGGING

Disassembly of section .text:

08000130 <__do_global_dtors_aux>:
 8000130:	b510      	push	{r4, lr}
 8000132:	4c05      	ldr	r4, [pc, #20]	; (8000148 <__do_global_dtors_aux+0x18>)
 8000134:	7823      	ldrb	r3, [r4, #0]
 8000136:	b933      	cbnz	r3, 8000146 <__do_global_dtors_aux+0x16>
 8000138:	4b04      	ldr	r3, [pc, #16]	; (800014c <__do_global_dtors_aux+0x1c>)
 800013a:	b113      	cbz	r3, 8000142 <__do_global_dtors_aux+0x12>
 800013c:	4804      	ldr	r0, [pc, #16]	; (8000150 <__do_global_dtors_aux+0x20>)
 800013e:	f3af 8000 	nop.w
 8000142:	2301      	movs	r3, #1
 8000144:	7023      	strb	r3, [r4, #0]
 8000146:	bd10      	pop	{r4, pc}
 8000148:	20000010 	.word	0x20000010
 800014c:	00000000 	.word	0x00000000
 8000150:	080007ec 	.word	0x080007ec

08000154 <frame_dummy>:
 8000154:	b508      	push	{r3, lr}
 8000156:	4b03      	ldr	r3, [pc, #12]	; (8000164 <frame_dummy+0x10>)
 8000158:	b11b      	cbz	r3, 8000162 <frame_dummy+0xe>
 800015a:	4903      	ldr	r1, [pc, #12]	; (8000168 <frame_dummy+0x14>)
 800015c:	4803      	ldr	r0, [pc, #12]	; (800016c <frame_dummy+0x18>)
 800015e:	f3af 8000 	nop.w
 8000162:	bd08      	pop	{r3, pc}
 8000164:	00000000 	.word	0x00000000
 8000168:	20000014 	.word	0x20000014
 800016c:	080007ec 	.word	0x080007ec

08000170 <GPIO_enuSetPinMode>:
};



ES_t GPIO_enuSetPinMode				(const GPIO_PinCongig_t * Copy_PstrPinConfig)
{
 8000170:	b480      	push	{r7}
 8000172:	b085      	sub	sp, #20
 8000174:	af00      	add	r7, sp, #0
 8000176:	6078      	str	r0, [r7, #4]
	ES_t Local_enuErrorState = ES_NOK;
 8000178:	2301      	movs	r3, #1
 800017a:	73fb      	strb	r3, [r7, #15]
	u8 Local_u8PinMode = Copy_PstrPinConfig->PinMode;
 800017c:	687b      	ldr	r3, [r7, #4]
 800017e:	789b      	ldrb	r3, [r3, #2]
 8000180:	73bb      	strb	r3, [r7, #14]
	if(NULL != Copy_PstrPinConfig)
 8000182:	687b      	ldr	r3, [r7, #4]
 8000184:	2b00      	cmp	r3, #0
 8000186:	f000 80b1 	beq.w	80002ec <GPIO_enuSetPinMode+0x17c>
	{
		if(GPIO_u8GPIO_A <= Copy_PstrPinConfig->PortId && GPIO_u8GPIO_C >= Copy_PstrPinConfig->PortId)
 800018a:	687b      	ldr	r3, [r7, #4]
 800018c:	781b      	ldrb	r3, [r3, #0]
 800018e:	2b02      	cmp	r3, #2
 8000190:	f200 80a9 	bhi.w	80002e6 <GPIO_enuSetPinMode+0x176>
		{
			if(GPIO_u8InputPullDown == Local_u8PinMode || GPIO_u8InputPullUp == Local_u8PinMode)
 8000194:	7bbb      	ldrb	r3, [r7, #14]
 8000196:	2b08      	cmp	r3, #8
 8000198:	d002      	beq.n	80001a0 <GPIO_enuSetPinMode+0x30>
 800019a:	7bbb      	ldrb	r3, [r7, #14]
 800019c:	2b09      	cmp	r3, #9
 800019e:	d133      	bne.n	8000208 <GPIO_enuSetPinMode+0x98>
			{
				if(GETBIT(Local_u8PinMode,0))//if condition true it's pullup else it's pulldown
 80001a0:	7bbb      	ldrb	r3, [r7, #14]
 80001a2:	f003 0301 	and.w	r3, r3, #1
 80001a6:	2b00      	cmp	r3, #0
 80001a8:	d018      	beq.n	80001dc <GPIO_enuSetPinMode+0x6c>
				{
					SETBIT(Private_AptrTostrOfGPIOx[Copy_PstrPinConfig->PortId]->ODR,Copy_PstrPinConfig->PinId);
 80001aa:	687b      	ldr	r3, [r7, #4]
 80001ac:	781b      	ldrb	r3, [r3, #0]
 80001ae:	461a      	mov	r2, r3
 80001b0:	4b52      	ldr	r3, [pc, #328]	; (80002fc <GPIO_enuSetPinMode+0x18c>)
 80001b2:	f853 3022 	ldr.w	r3, [r3, r2, lsl #2]
 80001b6:	68da      	ldr	r2, [r3, #12]
 80001b8:	687b      	ldr	r3, [r7, #4]
 80001ba:	785b      	ldrb	r3, [r3, #1]
 80001bc:	4619      	mov	r1, r3
 80001be:	2301      	movs	r3, #1
 80001c0:	408b      	lsls	r3, r1
 80001c2:	4619      	mov	r1, r3
 80001c4:	687b      	ldr	r3, [r7, #4]
 80001c6:	781b      	ldrb	r3, [r3, #0]
 80001c8:	4618      	mov	r0, r3
 80001ca:	4b4c      	ldr	r3, [pc, #304]	; (80002fc <GPIO_enuSetPinMode+0x18c>)
 80001cc:	f853 3020 	ldr.w	r3, [r3, r0, lsl #2]
 80001d0:	430a      	orrs	r2, r1
 80001d2:	60da      	str	r2, [r3, #12]
					Local_u8PinMode--;
 80001d4:	7bbb      	ldrb	r3, [r7, #14]
 80001d6:	3b01      	subs	r3, #1
 80001d8:	73bb      	strb	r3, [r7, #14]
 80001da:	e015      	b.n	8000208 <GPIO_enuSetPinMode+0x98>
				}
				else
				{
					CLEARBIT(Private_AptrTostrOfGPIOx[Copy_PstrPinConfig->PortId]->ODR,Copy_PstrPinConfig->PinId);
 80001dc:	687b      	ldr	r3, [r7, #4]
 80001de:	781b      	ldrb	r3, [r3, #0]
 80001e0:	461a      	mov	r2, r3
 80001e2:	4b46      	ldr	r3, [pc, #280]	; (80002fc <GPIO_enuSetPinMode+0x18c>)
 80001e4:	f853 3022 	ldr.w	r3, [r3, r2, lsl #2]
 80001e8:	68da      	ldr	r2, [r3, #12]
 80001ea:	687b      	ldr	r3, [r7, #4]
 80001ec:	785b      	ldrb	r3, [r3, #1]
 80001ee:	4619      	mov	r1, r3
 80001f0:	2301      	movs	r3, #1
 80001f2:	408b      	lsls	r3, r1
 80001f4:	43db      	mvns	r3, r3
 80001f6:	4619      	mov	r1, r3
 80001f8:	687b      	ldr	r3, [r7, #4]
 80001fa:	781b      	ldrb	r3, [r3, #0]
 80001fc:	4618      	mov	r0, r3
 80001fe:	4b3f      	ldr	r3, [pc, #252]	; (80002fc <GPIO_enuSetPinMode+0x18c>)
 8000200:	f853 3020 	ldr.w	r3, [r3, r0, lsl #2]
 8000204:	400a      	ands	r2, r1
 8000206:	60da      	str	r2, [r3, #12]
				}

			}
			if(GPIO_u8PIN0 <= Copy_PstrPinConfig->PinId && GPIO_u8PIN7 >= Copy_PstrPinConfig->PinId)
 8000208:	687b      	ldr	r3, [r7, #4]
 800020a:	785b      	ldrb	r3, [r3, #1]
 800020c:	2b07      	cmp	r3, #7
 800020e:	d82e      	bhi.n	800026e <GPIO_enuSetPinMode+0xfe>
			{
				//clear mode bits(4-its) to make it ready to configured
				Private_AptrTostrOfGPIOx[Copy_PstrPinConfig->PortId]->CRL &= ~(0xfUL<<(Copy_PstrPinConfig->PinId * 4)); //0xf = 0000 0000 0000 0000 0000 0000 0000 1111
 8000210:	687b      	ldr	r3, [r7, #4]
 8000212:	781b      	ldrb	r3, [r3, #0]
 8000214:	461a      	mov	r2, r3
 8000216:	4b39      	ldr	r3, [pc, #228]	; (80002fc <GPIO_enuSetPinMode+0x18c>)
 8000218:	f853 3022 	ldr.w	r3, [r3, r2, lsl #2]
 800021c:	6819      	ldr	r1, [r3, #0]
 800021e:	687b      	ldr	r3, [r7, #4]
 8000220:	785b      	ldrb	r3, [r3, #1]
 8000222:	009b      	lsls	r3, r3, #2
 8000224:	220f      	movs	r2, #15
 8000226:	fa02 f303 	lsl.w	r3, r2, r3
 800022a:	43da      	mvns	r2, r3
 800022c:	687b      	ldr	r3, [r7, #4]
 800022e:	781b      	ldrb	r3, [r3, #0]
 8000230:	4618      	mov	r0, r3
 8000232:	4b32      	ldr	r3, [pc, #200]	; (80002fc <GPIO_enuSetPinMode+0x18c>)
 8000234:	f853 3020 	ldr.w	r3, [r3, r0, lsl #2]
 8000238:	400a      	ands	r2, r1
 800023a:	601a      	str	r2, [r3, #0]
				// set PIN mode
				Private_AptrTostrOfGPIOx[Copy_PstrPinConfig->PortId]->CRL |= (Local_u8PinMode<<(Copy_PstrPinConfig->PinId * 4));
 800023c:	687b      	ldr	r3, [r7, #4]
 800023e:	781b      	ldrb	r3, [r3, #0]
 8000240:	461a      	mov	r2, r3
 8000242:	4b2e      	ldr	r3, [pc, #184]	; (80002fc <GPIO_enuSetPinMode+0x18c>)
 8000244:	f853 3022 	ldr.w	r3, [r3, r2, lsl #2]
 8000248:	681a      	ldr	r2, [r3, #0]
 800024a:	7bb9      	ldrb	r1, [r7, #14]
 800024c:	687b      	ldr	r3, [r7, #4]
 800024e:	785b      	ldrb	r3, [r3, #1]
 8000250:	009b      	lsls	r3, r3, #2
 8000252:	fa01 f303 	lsl.w	r3, r1, r3
 8000256:	4619      	mov	r1, r3
 8000258:	687b      	ldr	r3, [r7, #4]
 800025a:	781b      	ldrb	r3, [r3, #0]
 800025c:	4618      	mov	r0, r3
 800025e:	4b27      	ldr	r3, [pc, #156]	; (80002fc <GPIO_enuSetPinMode+0x18c>)
 8000260:	f853 3020 	ldr.w	r3, [r3, r0, lsl #2]
 8000264:	430a      	orrs	r2, r1
 8000266:	601a      	str	r2, [r3, #0]
				Local_enuErrorState = ES_OK;
 8000268:	2300      	movs	r3, #0
 800026a:	73fb      	strb	r3, [r7, #15]
 800026c:	e040      	b.n	80002f0 <GPIO_enuSetPinMode+0x180>
			}
			else if (GPIO_u8PIN8 <= Copy_PstrPinConfig->PinId && GPIO_u8PIN15 >= Copy_PstrPinConfig->PinId)
 800026e:	687b      	ldr	r3, [r7, #4]
 8000270:	785b      	ldrb	r3, [r3, #1]
 8000272:	2b07      	cmp	r3, #7
 8000274:	d934      	bls.n	80002e0 <GPIO_enuSetPinMode+0x170>
 8000276:	687b      	ldr	r3, [r7, #4]
 8000278:	785b      	ldrb	r3, [r3, #1]
 800027a:	2b0f      	cmp	r3, #15
 800027c:	d830      	bhi.n	80002e0 <GPIO_enuSetPinMode+0x170>
			{
				//clear mode bits(4-its) to make it ready to configured
				Private_AptrTostrOfGPIOx[Copy_PstrPinConfig->PortId]->CRH &= ~(0xfUL<<((Copy_PstrPinConfig->PinId - 8)* 4)); //0xf = 0000 0000 0000 0000 0000 0000 0000 1111
 800027e:	687b      	ldr	r3, [r7, #4]
 8000280:	781b      	ldrb	r3, [r3, #0]
 8000282:	461a      	mov	r2, r3
 8000284:	4b1d      	ldr	r3, [pc, #116]	; (80002fc <GPIO_enuSetPinMode+0x18c>)
 8000286:	f853 3022 	ldr.w	r3, [r3, r2, lsl #2]
 800028a:	6859      	ldr	r1, [r3, #4]
 800028c:	687b      	ldr	r3, [r7, #4]
 800028e:	785b      	ldrb	r3, [r3, #1]
 8000290:	3b08      	subs	r3, #8
 8000292:	009b      	lsls	r3, r3, #2
 8000294:	220f      	movs	r2, #15
 8000296:	fa02 f303 	lsl.w	r3, r2, r3
 800029a:	43da      	mvns	r2, r3
 800029c:	687b      	ldr	r3, [r7, #4]
 800029e:	781b      	ldrb	r3, [r3, #0]
 80002a0:	4618      	mov	r0, r3
 80002a2:	4b16      	ldr	r3, [pc, #88]	; (80002fc <GPIO_enuSetPinMode+0x18c>)
 80002a4:	f853 3020 	ldr.w	r3, [r3, r0, lsl #2]
 80002a8:	400a      	ands	r2, r1
 80002aa:	605a      	str	r2, [r3, #4]
				// set PIN mode
				Private_AptrTostrOfGPIOx[Copy_PstrPinConfig->PortId]->CRH |= (Local_u8PinMode<<((Copy_PstrPinConfig->PinId - 8) * 4));
 80002ac:	687b      	ldr	r3, [r7, #4]
 80002ae:	781b      	ldrb	r3, [r3, #0]
 80002b0:	461a      	mov	r2, r3
 80002b2:	4b12      	ldr	r3, [pc, #72]	; (80002fc <GPIO_enuSetPinMode+0x18c>)
 80002b4:	f853 3022 	ldr.w	r3, [r3, r2, lsl #2]
 80002b8:	685a      	ldr	r2, [r3, #4]
 80002ba:	7bb9      	ldrb	r1, [r7, #14]
 80002bc:	687b      	ldr	r3, [r7, #4]
 80002be:	785b      	ldrb	r3, [r3, #1]
 80002c0:	3b08      	subs	r3, #8
 80002c2:	009b      	lsls	r3, r3, #2
 80002c4:	fa01 f303 	lsl.w	r3, r1, r3
 80002c8:	4619      	mov	r1, r3
 80002ca:	687b      	ldr	r3, [r7, #4]
 80002cc:	781b      	ldrb	r3, [r3, #0]
 80002ce:	4618      	mov	r0, r3
 80002d0:	4b0a      	ldr	r3, [pc, #40]	; (80002fc <GPIO_enuSetPinMode+0x18c>)
 80002d2:	f853 3020 	ldr.w	r3, [r3, r0, lsl #2]
 80002d6:	430a      	orrs	r2, r1
 80002d8:	605a      	str	r2, [r3, #4]
				Local_enuErrorState = ES_OK;
 80002da:	2300      	movs	r3, #0
 80002dc:	73fb      	strb	r3, [r7, #15]
 80002de:	e007      	b.n	80002f0 <GPIO_enuSetPinMode+0x180>
			}
			else
			{
				Local_enuErrorState = ES_Out_Of_Range;
 80002e0:	2303      	movs	r3, #3
 80002e2:	73fb      	strb	r3, [r7, #15]
 80002e4:	e004      	b.n	80002f0 <GPIO_enuSetPinMode+0x180>
			}
		}
		else
		{
			Local_enuErrorState = ES_Out_Of_Range;
 80002e6:	2303      	movs	r3, #3
 80002e8:	73fb      	strb	r3, [r7, #15]
 80002ea:	e001      	b.n	80002f0 <GPIO_enuSetPinMode+0x180>
		}
	}
	else
	{
		Local_enuErrorState = ES_NULLPOINTER;
 80002ec:	2302      	movs	r3, #2
 80002ee:	73fb      	strb	r3, [r7, #15]
	}
	return Local_enuErrorState;
 80002f0:	7bfb      	ldrb	r3, [r7, #15]
}
 80002f2:	4618      	mov	r0, r3
 80002f4:	3714      	adds	r7, #20
 80002f6:	46bd      	mov	sp, r7
 80002f8:	bc80      	pop	{r7}
 80002fa:	4770      	bx	lr
 80002fc:	20000000 	.word	0x20000000

08000300 <GPIO_enuTogPinVal>:
		Local_enuErrorState = ES_NULLPOINTER;
	}
	return Local_enuErrorState;
}
ES_t GPIO_enuTogPinVal		        (const GPIO_PinCongig_t * Copy_PstrPinConfig)
{
 8000300:	b480      	push	{r7}
 8000302:	b085      	sub	sp, #20
 8000304:	af00      	add	r7, sp, #0
 8000306:	6078      	str	r0, [r7, #4]
	ES_t Local_enuErrorState = ES_NOK;
 8000308:	2301      	movs	r3, #1
 800030a:	73fb      	strb	r3, [r7, #15]
	if(NULL != Copy_PstrPinConfig)
 800030c:	687b      	ldr	r3, [r7, #4]
 800030e:	2b00      	cmp	r3, #0
 8000310:	d015      	beq.n	800033e <GPIO_enuTogPinVal+0x3e>
	{
		TOOGLEBIT(Private_AptrTostrOfGPIOx[Copy_PstrPinConfig->PortId]->ODR,Copy_PstrPinConfig->PinId);
 8000312:	687b      	ldr	r3, [r7, #4]
 8000314:	781b      	ldrb	r3, [r3, #0]
 8000316:	461a      	mov	r2, r3
 8000318:	4b0d      	ldr	r3, [pc, #52]	; (8000350 <GPIO_enuTogPinVal+0x50>)
 800031a:	f853 3022 	ldr.w	r3, [r3, r2, lsl #2]
 800031e:	68da      	ldr	r2, [r3, #12]
 8000320:	687b      	ldr	r3, [r7, #4]
 8000322:	785b      	ldrb	r3, [r3, #1]
 8000324:	4619      	mov	r1, r3
 8000326:	2301      	movs	r3, #1
 8000328:	408b      	lsls	r3, r1
 800032a:	4619      	mov	r1, r3
 800032c:	687b      	ldr	r3, [r7, #4]
 800032e:	781b      	ldrb	r3, [r3, #0]
 8000330:	4618      	mov	r0, r3
 8000332:	4b07      	ldr	r3, [pc, #28]	; (8000350 <GPIO_enuTogPinVal+0x50>)
 8000334:	f853 3020 	ldr.w	r3, [r3, r0, lsl #2]
 8000338:	404a      	eors	r2, r1
 800033a:	60da      	str	r2, [r3, #12]
 800033c:	e001      	b.n	8000342 <GPIO_enuTogPinVal+0x42>
	}
	else
	{
		Local_enuErrorState = ES_NULLPOINTER;
 800033e:	2302      	movs	r3, #2
 8000340:	73fb      	strb	r3, [r7, #15]
	}


	return Local_enuErrorState;
 8000342:	7bfb      	ldrb	r3, [r7, #15]
}
 8000344:	4618      	mov	r0, r3
 8000346:	3714      	adds	r7, #20
 8000348:	46bd      	mov	sp, r7
 800034a:	bc80      	pop	{r7}
 800034c:	4770      	bx	lr
 800034e:	bf00      	nop
 8000350:	20000000 	.word	0x20000000

08000354 <NVIC_enuEnableINT>:
#include"NVIC_Private.h"
#include"NVIC_Config.h"
#include"NVIC_Interface.h"

ES_t NVIC_enuEnableINT       (u8 Copy_u8PrephiralID)
{
 8000354:	b480      	push	{r7}
 8000356:	b085      	sub	sp, #20
 8000358:	af00      	add	r7, sp, #0
 800035a:	4603      	mov	r3, r0
 800035c:	71fb      	strb	r3, [r7, #7]
	ES_t Local_enuErrorState = ES_NOK;
 800035e:	2301      	movs	r3, #1
 8000360:	73fb      	strb	r3, [r7, #15]

	if(I2C1_EV >= Copy_u8PrephiralID)
 8000362:	79fb      	ldrb	r3, [r7, #7]
 8000364:	2b1f      	cmp	r3, #31
 8000366:	d80c      	bhi.n	8000382 <NVIC_enuEnableINT+0x2e>
	{

		SETBIT(NVIC->ISER[0],Copy_u8PrephiralID);
 8000368:	4b14      	ldr	r3, [pc, #80]	; (80003bc <NVIC_enuEnableINT+0x68>)
 800036a:	681b      	ldr	r3, [r3, #0]
 800036c:	79fa      	ldrb	r2, [r7, #7]
 800036e:	2101      	movs	r1, #1
 8000370:	fa01 f202 	lsl.w	r2, r1, r2
 8000374:	4611      	mov	r1, r2
 8000376:	4a11      	ldr	r2, [pc, #68]	; (80003bc <NVIC_enuEnableINT+0x68>)
 8000378:	430b      	orrs	r3, r1
 800037a:	6013      	str	r3, [r2, #0]
		Local_enuErrorState = ES_OK;
 800037c:	2300      	movs	r3, #0
 800037e:	73fb      	strb	r3, [r7, #15]
 8000380:	e015      	b.n	80003ae <NVIC_enuEnableINT+0x5a>
	}
	else if(I2C1_ER <= Copy_u8PrephiralID && DMA2_Channel4_5 >= Copy_u8PrephiralID)
 8000382:	79fb      	ldrb	r3, [r7, #7]
 8000384:	2b1f      	cmp	r3, #31
 8000386:	d910      	bls.n	80003aa <NVIC_enuEnableINT+0x56>
 8000388:	79fb      	ldrb	r3, [r7, #7]
 800038a:	2b3b      	cmp	r3, #59	; 0x3b
 800038c:	d80d      	bhi.n	80003aa <NVIC_enuEnableINT+0x56>
	{
		SETBIT(NVIC->ISER[1],(Copy_u8PrephiralID - I2C1_ER));
 800038e:	4b0b      	ldr	r3, [pc, #44]	; (80003bc <NVIC_enuEnableINT+0x68>)
 8000390:	685b      	ldr	r3, [r3, #4]
 8000392:	79fa      	ldrb	r2, [r7, #7]
 8000394:	3a20      	subs	r2, #32
 8000396:	2101      	movs	r1, #1
 8000398:	fa01 f202 	lsl.w	r2, r1, r2
 800039c:	4611      	mov	r1, r2
 800039e:	4a07      	ldr	r2, [pc, #28]	; (80003bc <NVIC_enuEnableINT+0x68>)
 80003a0:	430b      	orrs	r3, r1
 80003a2:	6053      	str	r3, [r2, #4]
		Local_enuErrorState = ES_OK;
 80003a4:	2300      	movs	r3, #0
 80003a6:	73fb      	strb	r3, [r7, #15]
 80003a8:	e001      	b.n	80003ae <NVIC_enuEnableINT+0x5a>
		SETBIT(NVIC->ISER[2],(Copy_u8PrephiralID - CAN2_RX0));
		Local_enuErrorState = ES_OK;
	}*/
	else
	{
		Local_enuErrorState = ES_Out_Of_Range;
 80003aa:	2303      	movs	r3, #3
 80003ac:	73fb      	strb	r3, [r7, #15]
	}


	return Local_enuErrorState;
 80003ae:	7bfb      	ldrb	r3, [r7, #15]
}
 80003b0:	4618      	mov	r0, r3
 80003b2:	3714      	adds	r7, #20
 80003b4:	46bd      	mov	sp, r7
 80003b6:	bc80      	pop	{r7}
 80003b8:	4770      	bx	lr
 80003ba:	bf00      	nop
 80003bc:	e000e100 	.word	0xe000e100

080003c0 <NVIC_enuSetPendingINT>:
	return Local_enuErrorState;
}


ES_t NVIC_enuSetPendingINT   (u8 Copy_u8PrephiralID)
{
 80003c0:	b480      	push	{r7}
 80003c2:	b085      	sub	sp, #20
 80003c4:	af00      	add	r7, sp, #0
 80003c6:	4603      	mov	r3, r0
 80003c8:	71fb      	strb	r3, [r7, #7]
	ES_t Local_enuErrorState = ES_NOK;
 80003ca:	2301      	movs	r3, #1
 80003cc:	73fb      	strb	r3, [r7, #15]

	if(I2C1_EV >= Copy_u8PrephiralID)
 80003ce:	79fb      	ldrb	r3, [r7, #7]
 80003d0:	2b1f      	cmp	r3, #31
 80003d2:	d80e      	bhi.n	80003f2 <NVIC_enuSetPendingINT+0x32>
	{

		SETBIT(NVIC->ISPR[0],Copy_u8PrephiralID);
 80003d4:	4b16      	ldr	r3, [pc, #88]	; (8000430 <NVIC_enuSetPendingINT+0x70>)
 80003d6:	f8d3 3100 	ldr.w	r3, [r3, #256]	; 0x100
 80003da:	79fa      	ldrb	r2, [r7, #7]
 80003dc:	2101      	movs	r1, #1
 80003de:	fa01 f202 	lsl.w	r2, r1, r2
 80003e2:	4611      	mov	r1, r2
 80003e4:	4a12      	ldr	r2, [pc, #72]	; (8000430 <NVIC_enuSetPendingINT+0x70>)
 80003e6:	430b      	orrs	r3, r1
 80003e8:	f8c2 3100 	str.w	r3, [r2, #256]	; 0x100
		Local_enuErrorState = ES_OK;
 80003ec:	2300      	movs	r3, #0
 80003ee:	73fb      	strb	r3, [r7, #15]
 80003f0:	e017      	b.n	8000422 <NVIC_enuSetPendingINT+0x62>
	}
	else if(I2C1_ER <= Copy_u8PrephiralID && DMA2_Channel4_5 >= Copy_u8PrephiralID)
 80003f2:	79fb      	ldrb	r3, [r7, #7]
 80003f4:	2b1f      	cmp	r3, #31
 80003f6:	d912      	bls.n	800041e <NVIC_enuSetPendingINT+0x5e>
 80003f8:	79fb      	ldrb	r3, [r7, #7]
 80003fa:	2b3b      	cmp	r3, #59	; 0x3b
 80003fc:	d80f      	bhi.n	800041e <NVIC_enuSetPendingINT+0x5e>
	{
		SETBIT(NVIC->ISPR[1],(Copy_u8PrephiralID - I2C1_ER));
 80003fe:	4b0c      	ldr	r3, [pc, #48]	; (8000430 <NVIC_enuSetPendingINT+0x70>)
 8000400:	f8d3 3104 	ldr.w	r3, [r3, #260]	; 0x104
 8000404:	79fa      	ldrb	r2, [r7, #7]
 8000406:	3a20      	subs	r2, #32
 8000408:	2101      	movs	r1, #1
 800040a:	fa01 f202 	lsl.w	r2, r1, r2
 800040e:	4611      	mov	r1, r2
 8000410:	4a07      	ldr	r2, [pc, #28]	; (8000430 <NVIC_enuSetPendingINT+0x70>)
 8000412:	430b      	orrs	r3, r1
 8000414:	f8c2 3104 	str.w	r3, [r2, #260]	; 0x104
		Local_enuErrorState = ES_OK;
 8000418:	2300      	movs	r3, #0
 800041a:	73fb      	strb	r3, [r7, #15]
 800041c:	e001      	b.n	8000422 <NVIC_enuSetPendingINT+0x62>
		SETBIT(NVIC->ISPR[2],(Copy_u8PrephiralID - CAN2_RX0));
		Local_enuErrorState = ES_OK;
	}*/
	else
	{
		Local_enuErrorState = ES_Out_Of_Range;
 800041e:	2303      	movs	r3, #3
 8000420:	73fb      	strb	r3, [r7, #15]
	}

	return Local_enuErrorState;
 8000422:	7bfb      	ldrb	r3, [r7, #15]
}
 8000424:	4618      	mov	r0, r3
 8000426:	3714      	adds	r7, #20
 8000428:	46bd      	mov	sp, r7
 800042a:	bc80      	pop	{r7}
 800042c:	4770      	bx	lr
 800042e:	bf00      	nop
 8000430:	e000e100 	.word	0xe000e100

08000434 <NVIC_enuClearPendingINT>:
ES_t NVIC_enuClearPendingINT (u8 Copy_u8PrephiralID)
{
 8000434:	b480      	push	{r7}
 8000436:	b085      	sub	sp, #20
 8000438:	af00      	add	r7, sp, #0
 800043a:	4603      	mov	r3, r0
 800043c:	71fb      	strb	r3, [r7, #7]
	ES_t Local_enuErrorState = ES_NOK;
 800043e:	2301      	movs	r3, #1
 8000440:	73fb      	strb	r3, [r7, #15]

	if(I2C1_EV >= Copy_u8PrephiralID)
 8000442:	79fb      	ldrb	r3, [r7, #7]
 8000444:	2b1f      	cmp	r3, #31
 8000446:	d80e      	bhi.n	8000466 <NVIC_enuClearPendingINT+0x32>
	{

		SETBIT(NVIC->ICPR[0],Copy_u8PrephiralID);
 8000448:	4b16      	ldr	r3, [pc, #88]	; (80004a4 <NVIC_enuClearPendingINT+0x70>)
 800044a:	f8d3 3180 	ldr.w	r3, [r3, #384]	; 0x180
 800044e:	79fa      	ldrb	r2, [r7, #7]
 8000450:	2101      	movs	r1, #1
 8000452:	fa01 f202 	lsl.w	r2, r1, r2
 8000456:	4611      	mov	r1, r2
 8000458:	4a12      	ldr	r2, [pc, #72]	; (80004a4 <NVIC_enuClearPendingINT+0x70>)
 800045a:	430b      	orrs	r3, r1
 800045c:	f8c2 3180 	str.w	r3, [r2, #384]	; 0x180
		Local_enuErrorState = ES_OK;
 8000460:	2300      	movs	r3, #0
 8000462:	73fb      	strb	r3, [r7, #15]
 8000464:	e017      	b.n	8000496 <NVIC_enuClearPendingINT+0x62>
	}
	else if(I2C1_ER <= Copy_u8PrephiralID && DMA2_Channel4_5 >= Copy_u8PrephiralID)
 8000466:	79fb      	ldrb	r3, [r7, #7]
 8000468:	2b1f      	cmp	r3, #31
 800046a:	d912      	bls.n	8000492 <NVIC_enuClearPendingINT+0x5e>
 800046c:	79fb      	ldrb	r3, [r7, #7]
 800046e:	2b3b      	cmp	r3, #59	; 0x3b
 8000470:	d80f      	bhi.n	8000492 <NVIC_enuClearPendingINT+0x5e>
	{
		SETBIT(NVIC->ICPR[1], (Copy_u8PrephiralID - I2C1_ER));
 8000472:	4b0c      	ldr	r3, [pc, #48]	; (80004a4 <NVIC_enuClearPendingINT+0x70>)
 8000474:	f8d3 3184 	ldr.w	r3, [r3, #388]	; 0x184
 8000478:	79fa      	ldrb	r2, [r7, #7]
 800047a:	3a20      	subs	r2, #32
 800047c:	2101      	movs	r1, #1
 800047e:	fa01 f202 	lsl.w	r2, r1, r2
 8000482:	4611      	mov	r1, r2
 8000484:	4a07      	ldr	r2, [pc, #28]	; (80004a4 <NVIC_enuClearPendingINT+0x70>)
 8000486:	430b      	orrs	r3, r1
 8000488:	f8c2 3184 	str.w	r3, [r2, #388]	; 0x184
		Local_enuErrorState = ES_OK;
 800048c:	2300      	movs	r3, #0
 800048e:	73fb      	strb	r3, [r7, #15]
 8000490:	e001      	b.n	8000496 <NVIC_enuClearPendingINT+0x62>
		SETBIT(NVIC->ICPR[2],(Copy_u8PrephiralID - CAN2_RX0));
		Local_enuErrorState = ES_OK;
	}*/
	else
	{
		Local_enuErrorState = ES_Out_Of_Range;
 8000492:	2303      	movs	r3, #3
 8000494:	73fb      	strb	r3, [r7, #15]
	}



	return Local_enuErrorState;
 8000496:	7bfb      	ldrb	r3, [r7, #15]
}
 8000498:	4618      	mov	r0, r3
 800049a:	3714      	adds	r7, #20
 800049c:	46bd      	mov	sp, r7
 800049e:	bc80      	pop	{r7}
 80004a0:	4770      	bx	lr
 80004a2:	bf00      	nop
 80004a4:	e000e100 	.word	0xe000e100

080004a8 <RCC_VidInitSysClk>:
#include"RCC/RCC_Config.h"
#include"RCC/RCC_Prive.h"


void RCC_VidInitSysClk(void)
{
 80004a8:	b480      	push	{r7}
 80004aa:	af00      	add	r7, sp, #0

	CLEARBIT(RCC->CFGR,0); CLEARBIT(RCC->CFGR,1);
 80004ac:	4b14      	ldr	r3, [pc, #80]	; (8000500 <RCC_VidInitSysClk+0x58>)
 80004ae:	685b      	ldr	r3, [r3, #4]
 80004b0:	4a13      	ldr	r2, [pc, #76]	; (8000500 <RCC_VidInitSysClk+0x58>)
 80004b2:	f023 0301 	bic.w	r3, r3, #1
 80004b6:	6053      	str	r3, [r2, #4]
 80004b8:	4b11      	ldr	r3, [pc, #68]	; (8000500 <RCC_VidInitSysClk+0x58>)
 80004ba:	685b      	ldr	r3, [r3, #4]
 80004bc:	4a10      	ldr	r2, [pc, #64]	; (8000500 <RCC_VidInitSysClk+0x58>)
 80004be:	f023 0302 	bic.w	r3, r3, #2
 80004c2:	6053      	str	r3, [r2, #4]

#if RCC_U8_CLK_SYS == HIGH_SPEED_INTERNAL_CLOCK

	while(!GETBIT(RCC->CR,1));
 80004c4:	bf00      	nop
 80004c6:	4b0e      	ldr	r3, [pc, #56]	; (8000500 <RCC_VidInitSysClk+0x58>)
 80004c8:	681b      	ldr	r3, [r3, #0]
 80004ca:	085b      	lsrs	r3, r3, #1
 80004cc:	f003 0301 	and.w	r3, r3, #1
 80004d0:	2b00      	cmp	r3, #0
 80004d2:	d0f8      	beq.n	80004c6 <RCC_VidInitSysClk+0x1e>

	SETBIT(RCC->CR,0);//enable hsi
 80004d4:	4b0a      	ldr	r3, [pc, #40]	; (8000500 <RCC_VidInitSysClk+0x58>)
 80004d6:	681b      	ldr	r3, [r3, #0]
 80004d8:	4a09      	ldr	r2, [pc, #36]	; (8000500 <RCC_VidInitSysClk+0x58>)
 80004da:	f043 0301 	orr.w	r3, r3, #1
 80004de:	6013      	str	r3, [r2, #0]
	CLEARBIT(RCC->CFGR,0); CLEARBIT(RCC->CFGR,1);//select HSI as a system clk source
 80004e0:	4b07      	ldr	r3, [pc, #28]	; (8000500 <RCC_VidInitSysClk+0x58>)
 80004e2:	685b      	ldr	r3, [r3, #4]
 80004e4:	4a06      	ldr	r2, [pc, #24]	; (8000500 <RCC_VidInitSysClk+0x58>)
 80004e6:	f023 0301 	bic.w	r3, r3, #1
 80004ea:	6053      	str	r3, [r2, #4]
 80004ec:	4b04      	ldr	r3, [pc, #16]	; (8000500 <RCC_VidInitSysClk+0x58>)
 80004ee:	685b      	ldr	r3, [r3, #4]
 80004f0:	4a03      	ldr	r2, [pc, #12]	; (8000500 <RCC_VidInitSysClk+0x58>)
 80004f2:	f023 0302 	bic.w	r3, r3, #2
 80004f6:	6053      	str	r3, [r2, #4]
	SETBIT(RCC->CFGR,1);//pll selected as a sys clk

#else
#error"Wrong selection"
#endif
}
 80004f8:	bf00      	nop
 80004fa:	46bd      	mov	sp, r7
 80004fc:	bc80      	pop	{r7}
 80004fe:	4770      	bx	lr
 8000500:	40021000 	.word	0x40021000

08000504 <RCC_enuStatePeripheralClk>:
ES_t RCC_enuStatePeripheralClk(u8 Copy_u8Peripheral,u8 Copy_u8State)
{
 8000504:	b480      	push	{r7}
 8000506:	b085      	sub	sp, #20
 8000508:	af00      	add	r7, sp, #0
 800050a:	4603      	mov	r3, r0
 800050c:	460a      	mov	r2, r1
 800050e:	71fb      	strb	r3, [r7, #7]
 8000510:	4613      	mov	r3, r2
 8000512:	71bb      	strb	r3, [r7, #6]
	ES_t Local_enuErrorState = ES_NOK;
 8000514:	2301      	movs	r3, #1
 8000516:	73fb      	strb	r3, [r7, #15]

	if(Copy_u8Peripheral>=DMA1 && Copy_u8Peripheral<= SDIO)
 8000518:	79fb      	ldrb	r3, [r7, #7]
 800051a:	2b0a      	cmp	r3, #10
 800051c:	d820      	bhi.n	8000560 <RCC_enuStatePeripheralClk+0x5c>
	{
		if(ENABLE == Copy_u8State)
 800051e:	79bb      	ldrb	r3, [r7, #6]
 8000520:	2b01      	cmp	r3, #1
 8000522:	d10c      	bne.n	800053e <RCC_enuStatePeripheralClk+0x3a>
		{
			SETBIT(RCC->AHBENR,Copy_u8Peripheral);
 8000524:	4b3b      	ldr	r3, [pc, #236]	; (8000614 <RCC_enuStatePeripheralClk+0x110>)
 8000526:	695b      	ldr	r3, [r3, #20]
 8000528:	79fa      	ldrb	r2, [r7, #7]
 800052a:	2101      	movs	r1, #1
 800052c:	fa01 f202 	lsl.w	r2, r1, r2
 8000530:	4611      	mov	r1, r2
 8000532:	4a38      	ldr	r2, [pc, #224]	; (8000614 <RCC_enuStatePeripheralClk+0x110>)
 8000534:	430b      	orrs	r3, r1
 8000536:	6153      	str	r3, [r2, #20]
			Local_enuErrorState = ES_OK;
 8000538:	2300      	movs	r3, #0
 800053a:	73fb      	strb	r3, [r7, #15]
 800053c:	e063      	b.n	8000606 <RCC_enuStatePeripheralClk+0x102>
		}
		else if (DISABLE == Copy_u8State)
 800053e:	79bb      	ldrb	r3, [r7, #6]
 8000540:	2b00      	cmp	r3, #0
 8000542:	d160      	bne.n	8000606 <RCC_enuStatePeripheralClk+0x102>
		{
			CLEARBIT(RCC->AHBENR,Copy_u8Peripheral);
 8000544:	4b33      	ldr	r3, [pc, #204]	; (8000614 <RCC_enuStatePeripheralClk+0x110>)
 8000546:	695b      	ldr	r3, [r3, #20]
 8000548:	79fa      	ldrb	r2, [r7, #7]
 800054a:	2101      	movs	r1, #1
 800054c:	fa01 f202 	lsl.w	r2, r1, r2
 8000550:	43d2      	mvns	r2, r2
 8000552:	4611      	mov	r1, r2
 8000554:	4a2f      	ldr	r2, [pc, #188]	; (8000614 <RCC_enuStatePeripheralClk+0x110>)
 8000556:	400b      	ands	r3, r1
 8000558:	6153      	str	r3, [r2, #20]
			Local_enuErrorState = ES_OK;
 800055a:	2300      	movs	r3, #0
 800055c:	73fb      	strb	r3, [r7, #15]
 800055e:	e052      	b.n	8000606 <RCC_enuStatePeripheralClk+0x102>
		}
	}
	else if (Copy_u8Peripheral>=AFIO && Copy_u8Peripheral<= TIM11)
 8000560:	79fb      	ldrb	r3, [r7, #7]
 8000562:	2b1f      	cmp	r3, #31
 8000564:	d925      	bls.n	80005b2 <RCC_enuStatePeripheralClk+0xae>
 8000566:	79fb      	ldrb	r3, [r7, #7]
 8000568:	2b35      	cmp	r3, #53	; 0x35
 800056a:	d822      	bhi.n	80005b2 <RCC_enuStatePeripheralClk+0xae>
	{

		if(ENABLE == Copy_u8State)
 800056c:	79bb      	ldrb	r3, [r7, #6]
 800056e:	2b01      	cmp	r3, #1
 8000570:	d10d      	bne.n	800058e <RCC_enuStatePeripheralClk+0x8a>
		{
			SETBIT(RCC->APB2ENR,(Copy_u8Peripheral-AFIO));
 8000572:	4b28      	ldr	r3, [pc, #160]	; (8000614 <RCC_enuStatePeripheralClk+0x110>)
 8000574:	699b      	ldr	r3, [r3, #24]
 8000576:	79fa      	ldrb	r2, [r7, #7]
 8000578:	3a20      	subs	r2, #32
 800057a:	2101      	movs	r1, #1
 800057c:	fa01 f202 	lsl.w	r2, r1, r2
 8000580:	4611      	mov	r1, r2
 8000582:	4a24      	ldr	r2, [pc, #144]	; (8000614 <RCC_enuStatePeripheralClk+0x110>)
 8000584:	430b      	orrs	r3, r1
 8000586:	6193      	str	r3, [r2, #24]
			Local_enuErrorState = ES_OK;
 8000588:	2300      	movs	r3, #0
 800058a:	73fb      	strb	r3, [r7, #15]
		if(ENABLE == Copy_u8State)
 800058c:	e03a      	b.n	8000604 <RCC_enuStatePeripheralClk+0x100>
		}
		else if (DISABLE == Copy_u8State)
 800058e:	79bb      	ldrb	r3, [r7, #6]
 8000590:	2b00      	cmp	r3, #0
 8000592:	d137      	bne.n	8000604 <RCC_enuStatePeripheralClk+0x100>
		{
			CLEARBIT(RCC->APB2ENR,(Copy_u8Peripheral-AFIO));
 8000594:	4b1f      	ldr	r3, [pc, #124]	; (8000614 <RCC_enuStatePeripheralClk+0x110>)
 8000596:	699b      	ldr	r3, [r3, #24]
 8000598:	79fa      	ldrb	r2, [r7, #7]
 800059a:	3a20      	subs	r2, #32
 800059c:	2101      	movs	r1, #1
 800059e:	fa01 f202 	lsl.w	r2, r1, r2
 80005a2:	43d2      	mvns	r2, r2
 80005a4:	4611      	mov	r1, r2
 80005a6:	4a1b      	ldr	r2, [pc, #108]	; (8000614 <RCC_enuStatePeripheralClk+0x110>)
 80005a8:	400b      	ands	r3, r1
 80005aa:	6193      	str	r3, [r2, #24]
			Local_enuErrorState = ES_OK;
 80005ac:	2300      	movs	r3, #0
 80005ae:	73fb      	strb	r3, [r7, #15]
		if(ENABLE == Copy_u8State)
 80005b0:	e028      	b.n	8000604 <RCC_enuStatePeripheralClk+0x100>
		}
	}
	else if (Copy_u8Peripheral>=TIM2 && Copy_u8Peripheral<= DAC)
 80005b2:	79fb      	ldrb	r3, [r7, #7]
 80005b4:	2b3f      	cmp	r3, #63	; 0x3f
 80005b6:	d926      	bls.n	8000606 <RCC_enuStatePeripheralClk+0x102>
 80005b8:	79fb      	ldrb	r3, [r7, #7]
 80005ba:	2b5d      	cmp	r3, #93	; 0x5d
 80005bc:	d823      	bhi.n	8000606 <RCC_enuStatePeripheralClk+0x102>
	{
		if(ENABLE == Copy_u8State)
 80005be:	79bb      	ldrb	r3, [r7, #6]
 80005c0:	2b01      	cmp	r3, #1
 80005c2:	d10d      	bne.n	80005e0 <RCC_enuStatePeripheralClk+0xdc>
		{
			SETBIT(RCC->APB1ENR,(Copy_u8Peripheral-TIM2));
 80005c4:	4b13      	ldr	r3, [pc, #76]	; (8000614 <RCC_enuStatePeripheralClk+0x110>)
 80005c6:	69db      	ldr	r3, [r3, #28]
 80005c8:	79fa      	ldrb	r2, [r7, #7]
 80005ca:	3a40      	subs	r2, #64	; 0x40
 80005cc:	2101      	movs	r1, #1
 80005ce:	fa01 f202 	lsl.w	r2, r1, r2
 80005d2:	4611      	mov	r1, r2
 80005d4:	4a0f      	ldr	r2, [pc, #60]	; (8000614 <RCC_enuStatePeripheralClk+0x110>)
 80005d6:	430b      	orrs	r3, r1
 80005d8:	61d3      	str	r3, [r2, #28]
			Local_enuErrorState = ES_OK;
 80005da:	2300      	movs	r3, #0
 80005dc:	73fb      	strb	r3, [r7, #15]
 80005de:	e012      	b.n	8000606 <RCC_enuStatePeripheralClk+0x102>
		}
		else if (DISABLE == Copy_u8State)
 80005e0:	79bb      	ldrb	r3, [r7, #6]
 80005e2:	2b00      	cmp	r3, #0
 80005e4:	d10f      	bne.n	8000606 <RCC_enuStatePeripheralClk+0x102>
		{
			CLEARBIT(RCC->APB1ENR,(Copy_u8Peripheral-TIM2));
 80005e6:	4b0b      	ldr	r3, [pc, #44]	; (8000614 <RCC_enuStatePeripheralClk+0x110>)
 80005e8:	69db      	ldr	r3, [r3, #28]
 80005ea:	79fa      	ldrb	r2, [r7, #7]
 80005ec:	3a40      	subs	r2, #64	; 0x40
 80005ee:	2101      	movs	r1, #1
 80005f0:	fa01 f202 	lsl.w	r2, r1, r2
 80005f4:	43d2      	mvns	r2, r2
 80005f6:	4611      	mov	r1, r2
 80005f8:	4a06      	ldr	r2, [pc, #24]	; (8000614 <RCC_enuStatePeripheralClk+0x110>)
 80005fa:	400b      	ands	r3, r1
 80005fc:	61d3      	str	r3, [r2, #28]
			Local_enuErrorState = ES_OK;
 80005fe:	2300      	movs	r3, #0
 8000600:	73fb      	strb	r3, [r7, #15]
 8000602:	e000      	b.n	8000606 <RCC_enuStatePeripheralClk+0x102>
		if(ENABLE == Copy_u8State)
 8000604:	bf00      	nop
		}

	}

	return Local_enuErrorState;
 8000606:	7bfb      	ldrb	r3, [r7, #15]
}
 8000608:	4618      	mov	r0, r3
 800060a:	3714      	adds	r7, #20
 800060c:	46bd      	mov	sp, r7
 800060e:	bc80      	pop	{r7}
 8000610:	4770      	bx	lr
 8000612:	bf00      	nop
 8000614:	40021000 	.word	0x40021000

08000618 <STK_vidInitSTK>:

/*Global flag*/
volatile static u8 Global_u8ASynchtype ;

void STK_vidInitSTK                (void)//set prescaleing + disable STK
{
 8000618:	b480      	push	{r7}
 800061a:	af00      	add	r7, sp, #0
#if STK_u8ProcessorClock == STK_u8ClockSource
	SETBIT(SYSTICK->CTRL,STK_u8CLKSOURCE);
#elif STK_u8ProcessorClockDiv8 == STK_u8ClockSource
	CLEARBIT(SYSTICK->CTRL,STK_u8CLKSOURCE);
 800061c:	4b0a      	ldr	r3, [pc, #40]	; (8000648 <STK_vidInitSTK+0x30>)
 800061e:	681b      	ldr	r3, [r3, #0]
 8000620:	4a09      	ldr	r2, [pc, #36]	; (8000648 <STK_vidInitSTK+0x30>)
 8000622:	f023 0304 	bic.w	r3, r3, #4
 8000626:	6013      	str	r3, [r2, #0]
#else
#error"Wrong prescaling"

#endif
	CLEARBIT(SYSTICK->CTRL,STK_u8ENCOUNT);//disable SYSTICK
 8000628:	4b07      	ldr	r3, [pc, #28]	; (8000648 <STK_vidInitSTK+0x30>)
 800062a:	681b      	ldr	r3, [r3, #0]
 800062c:	4a06      	ldr	r2, [pc, #24]	; (8000648 <STK_vidInitSTK+0x30>)
 800062e:	f023 0301 	bic.w	r3, r3, #1
 8000632:	6013      	str	r3, [r2, #0]
	CLEARBIT(SYSTICK->CTRL,STK_u8TICKINT);//disable interrupt
 8000634:	4b04      	ldr	r3, [pc, #16]	; (8000648 <STK_vidInitSTK+0x30>)
 8000636:	681b      	ldr	r3, [r3, #0]
 8000638:	4a03      	ldr	r2, [pc, #12]	; (8000648 <STK_vidInitSTK+0x30>)
 800063a:	f023 0302 	bic.w	r3, r3, #2
 800063e:	6013      	str	r3, [r2, #0]
}
 8000640:	bf00      	nop
 8000642:	46bd      	mov	sp, r7
 8000644:	bc80      	pop	{r7}
 8000646:	4770      	bx	lr
 8000648:	e000e010 	.word	0xe000e010

0800064c <STK_enuSyncDelay>:
/*                Synch function                  */
ES_t STK_enuSyncDelay               (u32 Copy_u32DelyedTime)
{
 800064c:	b480      	push	{r7}
 800064e:	b085      	sub	sp, #20
 8000650:	af00      	add	r7, sp, #0
 8000652:	6078      	str	r0, [r7, #4]
	ES_t Local_enuErrorState = ES_NOK;
 8000654:	2301      	movs	r3, #1
 8000656:	73fb      	strb	r3, [r7, #15]
	if(0x00ffffff >= Copy_u32DelyedTime)
 8000658:	687b      	ldr	r3, [r7, #4]
 800065a:	f1b3 7f80 	cmp.w	r3, #16777216	; 0x1000000
 800065e:	d218      	bcs.n	8000692 <STK_enuSyncDelay+0x46>
	{

		SYSTICK->LOAD = Copy_u32DelyedTime;             //input load value
 8000660:	4a0f      	ldr	r2, [pc, #60]	; (80006a0 <STK_enuSyncDelay+0x54>)
 8000662:	687b      	ldr	r3, [r7, #4]
 8000664:	6053      	str	r3, [r2, #4]
		SETBIT(SYSTICK->CTRL,STK_u8ENCOUNT);            //enable SYSTICK timer
 8000666:	4b0e      	ldr	r3, [pc, #56]	; (80006a0 <STK_enuSyncDelay+0x54>)
 8000668:	681b      	ldr	r3, [r3, #0]
 800066a:	4a0d      	ldr	r2, [pc, #52]	; (80006a0 <STK_enuSyncDelay+0x54>)
 800066c:	f043 0301 	orr.w	r3, r3, #1
 8000670:	6013      	str	r3, [r2, #0]
		while(!GETBIT(SYSTICK->CTRL,STK_u8COUNTFLAG));  //polling delay
 8000672:	bf00      	nop
 8000674:	4b0a      	ldr	r3, [pc, #40]	; (80006a0 <STK_enuSyncDelay+0x54>)
 8000676:	681b      	ldr	r3, [r3, #0]
 8000678:	0c1b      	lsrs	r3, r3, #16
 800067a:	f003 0301 	and.w	r3, r3, #1
 800067e:	2b00      	cmp	r3, #0
 8000680:	d0f8      	beq.n	8000674 <STK_enuSyncDelay+0x28>
		CLEARBIT(SYSTICK->CTRL,STK_u8ENCOUNT);          //Disable SYSTICK timer
 8000682:	4b07      	ldr	r3, [pc, #28]	; (80006a0 <STK_enuSyncDelay+0x54>)
 8000684:	681b      	ldr	r3, [r3, #0]
 8000686:	4a06      	ldr	r2, [pc, #24]	; (80006a0 <STK_enuSyncDelay+0x54>)
 8000688:	f023 0301 	bic.w	r3, r3, #1
 800068c:	6013      	str	r3, [r2, #0]

		Local_enuErrorState = ES_OK;
 800068e:	2300      	movs	r3, #0
 8000690:	73fb      	strb	r3, [r7, #15]
	}
	return Local_enuErrorState;
 8000692:	7bfb      	ldrb	r3, [r7, #15]
}
 8000694:	4618      	mov	r0, r3
 8000696:	3714      	adds	r7, #20
 8000698:	46bd      	mov	sp, r7
 800069a:	bc80      	pop	{r7}
 800069c:	4770      	bx	lr
 800069e:	bf00      	nop
 80006a0:	e000e010 	.word	0xe000e010

080006a4 <SysTick_Handler>:




void SysTick_Handler(void)
{
 80006a4:	b580      	push	{r7, lr}
 80006a6:	af00      	add	r7, sp, #0
	if(NULL != GlobalP2FUN)
 80006a8:	4b12      	ldr	r3, [pc, #72]	; (80006f4 <SysTick_Handler+0x50>)
 80006aa:	681b      	ldr	r3, [r3, #0]
 80006ac:	2b00      	cmp	r3, #0
 80006ae:	d01e      	beq.n	80006ee <SysTick_Handler+0x4a>
	{
		if(STK_u8MultiShot == Global_u8ASynchtype)
 80006b0:	4b11      	ldr	r3, [pc, #68]	; (80006f8 <SysTick_Handler+0x54>)
 80006b2:	781b      	ldrb	r3, [r3, #0]
 80006b4:	b2db      	uxtb	r3, r3
 80006b6:	2b01      	cmp	r3, #1
 80006b8:	d013      	beq.n	80006e2 <SysTick_Handler+0x3e>
		{

		}
		else if (STK_u8singleShot == Global_u8ASynchtype)
 80006ba:	4b0f      	ldr	r3, [pc, #60]	; (80006f8 <SysTick_Handler+0x54>)
 80006bc:	781b      	ldrb	r3, [r3, #0]
 80006be:	b2db      	uxtb	r3, r3
 80006c0:	2b00      	cmp	r3, #0
 80006c2:	d10e      	bne.n	80006e2 <SysTick_Handler+0x3e>
		{
			SYSTICK->LOAD = ZERO;
 80006c4:	4b0d      	ldr	r3, [pc, #52]	; (80006fc <SysTick_Handler+0x58>)
 80006c6:	2200      	movs	r2, #0
 80006c8:	605a      	str	r2, [r3, #4]
			CLEARBIT(SYSTICK->CTRL,STK_u8ENCOUNT);//Disable SYSTICK timer
 80006ca:	4b0c      	ldr	r3, [pc, #48]	; (80006fc <SysTick_Handler+0x58>)
 80006cc:	681b      	ldr	r3, [r3, #0]
 80006ce:	4a0b      	ldr	r2, [pc, #44]	; (80006fc <SysTick_Handler+0x58>)
 80006d0:	f023 0301 	bic.w	r3, r3, #1
 80006d4:	6013      	str	r3, [r2, #0]
			CLEARBIT(SYSTICK->CTRL,STK_u8TICKINT);//Disable interrupt
 80006d6:	4b09      	ldr	r3, [pc, #36]	; (80006fc <SysTick_Handler+0x58>)
 80006d8:	681b      	ldr	r3, [r3, #0]
 80006da:	4a08      	ldr	r2, [pc, #32]	; (80006fc <SysTick_Handler+0x58>)
 80006dc:	f023 0302 	bic.w	r3, r3, #2
 80006e0:	6013      	str	r3, [r2, #0]
		}

		SYSTICK->VAL = ZERO;// clear COUNTFLAG as mentioned in program manual
 80006e2:	4b06      	ldr	r3, [pc, #24]	; (80006fc <SysTick_Handler+0x58>)
 80006e4:	2200      	movs	r2, #0
 80006e6:	609a      	str	r2, [r3, #8]
		GlobalP2FUN();
 80006e8:	4b02      	ldr	r3, [pc, #8]	; (80006f4 <SysTick_Handler+0x50>)
 80006ea:	681b      	ldr	r3, [r3, #0]
 80006ec:	4798      	blx	r3
	}
}
 80006ee:	bf00      	nop
 80006f0:	bd80      	pop	{r7, pc}
 80006f2:	bf00      	nop
 80006f4:	2000002c 	.word	0x2000002c
 80006f8:	20000030 	.word	0x20000030
 80006fc:	e000e010 	.word	0xe000e010

08000700 <main>:
#include"NVIC_Interface.h"
#include"NVIC_Config.h"

GPIO_PinCongig_t PC13 = {GPIO_u8GPIO_C,GPIO_u8PIN13,GPIO_u8Output10MHzPushPull};
int main(void)
{
 8000700:	b580      	push	{r7, lr}
 8000702:	af00      	add	r7, sp, #0
	RCC_VidInitSysClk();
 8000704:	f7ff fed0 	bl	80004a8 <RCC_VidInitSysClk>
	STK_vidInitSTK();
 8000708:	f7ff ff86 	bl	8000618 <STK_vidInitSTK>
	RCC_enuStatePeripheralClk(IOPC, RCC_u8_ENABLE);
 800070c:	2101      	movs	r1, #1
 800070e:	2024      	movs	r0, #36	; 0x24
 8000710:	f7ff fef8 	bl	8000504 <RCC_enuStatePeripheralClk>

	GPIO_enuSetPinMode(&PC13);
 8000714:	4806      	ldr	r0, [pc, #24]	; (8000730 <main+0x30>)
 8000716:	f7ff fd2b 	bl	8000170 <GPIO_enuSetPinMode>
	NVIC_enuEnableINT(EXTI0);
 800071a:	2006      	movs	r0, #6
 800071c:	f7ff fe1a 	bl	8000354 <NVIC_enuEnableINT>
	/* Loop forever */
	for(;;)
	{
		NVIC_enuSetPendingINT(EXTI0);
 8000720:	2006      	movs	r0, #6
 8000722:	f7ff fe4d 	bl	80003c0 <NVIC_enuSetPendingINT>
		STK_enuSyncDelay(1000000);
 8000726:	4803      	ldr	r0, [pc, #12]	; (8000734 <main+0x34>)
 8000728:	f7ff ff90 	bl	800064c <STK_enuSyncDelay>
		NVIC_enuSetPendingINT(EXTI0);
 800072c:	e7f8      	b.n	8000720 <main+0x20>
 800072e:	bf00      	nop
 8000730:	2000000c 	.word	0x2000000c
 8000734:	000f4240 	.word	0x000f4240

08000738 <EXTI0_IRQHandler>:

	}
}

void EXTI0_IRQHandler(void)
{
 8000738:	b580      	push	{r7, lr}
 800073a:	af00      	add	r7, sp, #0
	NVIC_enuClearPendingINT(EXTI0);
 800073c:	2006      	movs	r0, #6
 800073e:	f7ff fe79 	bl	8000434 <NVIC_enuClearPendingINT>
	GPIO_enuTogPinVal(&PC13);
 8000742:	4802      	ldr	r0, [pc, #8]	; (800074c <EXTI0_IRQHandler+0x14>)
 8000744:	f7ff fddc 	bl	8000300 <GPIO_enuTogPinVal>
}
 8000748:	bf00      	nop
 800074a:	bd80      	pop	{r7, pc}
 800074c:	2000000c 	.word	0x2000000c

08000750 <Reset_Handler>:

  .section .text.Reset_Handler
  .weak Reset_Handler
  .type Reset_Handler, %function
Reset_Handler:
  ldr   r0, =_estack
 8000750:	480d      	ldr	r0, [pc, #52]	; (8000788 <LoopForever+0x2>)
  mov   sp, r0          /* set stack pointer */
 8000752:	4685      	mov	sp, r0
/* Call the clock system intitialization function.*/
  bl  SystemInit
 8000754:	f3af 8000 	nop.w

/* Copy the data segment initializers from flash to SRAM */
  ldr r0, =_sdata
 8000758:	480c      	ldr	r0, [pc, #48]	; (800078c <LoopForever+0x6>)
  ldr r1, =_edata
 800075a:	490d      	ldr	r1, [pc, #52]	; (8000790 <LoopForever+0xa>)
  ldr r2, =_sidata
 800075c:	4a0d      	ldr	r2, [pc, #52]	; (8000794 <LoopForever+0xe>)
  movs r3, #0
 800075e:	2300      	movs	r3, #0
  b LoopCopyDataInit
 8000760:	e002      	b.n	8000768 <LoopCopyDataInit>

08000762 <CopyDataInit>:

CopyDataInit:
  ldr r4, [r2, r3]
 8000762:	58d4      	ldr	r4, [r2, r3]
  str r4, [r0, r3]
 8000764:	50c4      	str	r4, [r0, r3]
  adds r3, r3, #4
 8000766:	3304      	adds	r3, #4

08000768 <LoopCopyDataInit>:

LoopCopyDataInit:
  adds r4, r0, r3
 8000768:	18c4      	adds	r4, r0, r3
  cmp r4, r1
 800076a:	428c      	cmp	r4, r1
  bcc CopyDataInit
 800076c:	d3f9      	bcc.n	8000762 <CopyDataInit>

/* Zero fill the bss segment. */
  ldr r2, =_sbss
 800076e:	4a0a      	ldr	r2, [pc, #40]	; (8000798 <LoopForever+0x12>)
  ldr r4, =_ebss
 8000770:	4c0a      	ldr	r4, [pc, #40]	; (800079c <LoopForever+0x16>)
  movs r3, #0
 8000772:	2300      	movs	r3, #0
  b LoopFillZerobss
 8000774:	e001      	b.n	800077a <LoopFillZerobss>

08000776 <FillZerobss>:

FillZerobss:
  str  r3, [r2]
 8000776:	6013      	str	r3, [r2, #0]
  adds r2, r2, #4
 8000778:	3204      	adds	r2, #4

0800077a <LoopFillZerobss>:

LoopFillZerobss:
  cmp r2, r4
 800077a:	42a2      	cmp	r2, r4
  bcc FillZerobss
 800077c:	d3fb      	bcc.n	8000776 <FillZerobss>

/* Call static constructors */
  bl __libc_init_array
 800077e:	f000 f811 	bl	80007a4 <__libc_init_array>
/* Call the application's entry point.*/
  bl main
 8000782:	f7ff ffbd 	bl	8000700 <main>

08000786 <LoopForever>:

LoopForever:
    b LoopForever
 8000786:	e7fe      	b.n	8000786 <LoopForever>
  ldr   r0, =_estack
 8000788:	20005000 	.word	0x20005000
  ldr r0, =_sdata
 800078c:	20000000 	.word	0x20000000
  ldr r1, =_edata
 8000790:	20000010 	.word	0x20000010
  ldr r2, =_sidata
 8000794:	0800080c 	.word	0x0800080c
  ldr r2, =_sbss
 8000798:	20000010 	.word	0x20000010
  ldr r4, =_ebss
 800079c:	20000034 	.word	0x20000034

080007a0 <ADC1_2_IRQHandler>:
 * @retval : None
*/
  .section .text.Default_Handler,"ax",%progbits
Default_Handler:
Infinite_Loop:
  b Infinite_Loop
 80007a0:	e7fe      	b.n	80007a0 <ADC1_2_IRQHandler>
	...

080007a4 <__libc_init_array>:
 80007a4:	b570      	push	{r4, r5, r6, lr}
 80007a6:	2500      	movs	r5, #0
 80007a8:	4e0c      	ldr	r6, [pc, #48]	; (80007dc <__libc_init_array+0x38>)
 80007aa:	4c0d      	ldr	r4, [pc, #52]	; (80007e0 <__libc_init_array+0x3c>)
 80007ac:	1ba4      	subs	r4, r4, r6
 80007ae:	10a4      	asrs	r4, r4, #2
 80007b0:	42a5      	cmp	r5, r4
 80007b2:	d109      	bne.n	80007c8 <__libc_init_array+0x24>
 80007b4:	f000 f81a 	bl	80007ec <_init>
 80007b8:	2500      	movs	r5, #0
 80007ba:	4e0a      	ldr	r6, [pc, #40]	; (80007e4 <__libc_init_array+0x40>)
 80007bc:	4c0a      	ldr	r4, [pc, #40]	; (80007e8 <__libc_init_array+0x44>)
 80007be:	1ba4      	subs	r4, r4, r6
 80007c0:	10a4      	asrs	r4, r4, #2
 80007c2:	42a5      	cmp	r5, r4
 80007c4:	d105      	bne.n	80007d2 <__libc_init_array+0x2e>
 80007c6:	bd70      	pop	{r4, r5, r6, pc}
 80007c8:	f856 3025 	ldr.w	r3, [r6, r5, lsl #2]
 80007cc:	4798      	blx	r3
 80007ce:	3501      	adds	r5, #1
 80007d0:	e7ee      	b.n	80007b0 <__libc_init_array+0xc>
 80007d2:	f856 3025 	ldr.w	r3, [r6, r5, lsl #2]
 80007d6:	4798      	blx	r3
 80007d8:	3501      	adds	r5, #1
 80007da:	e7f2      	b.n	80007c2 <__libc_init_array+0x1e>
 80007dc:	08000804 	.word	0x08000804
 80007e0:	08000804 	.word	0x08000804
 80007e4:	08000804 	.word	0x08000804
 80007e8:	08000808 	.word	0x08000808

080007ec <_init>:
 80007ec:	b5f8      	push	{r3, r4, r5, r6, r7, lr}
 80007ee:	bf00      	nop
 80007f0:	bcf8      	pop	{r3, r4, r5, r6, r7}
 80007f2:	bc08      	pop	{r3}
 80007f4:	469e      	mov	lr, r3
 80007f6:	4770      	bx	lr

080007f8 <_fini>:
 80007f8:	b5f8      	push	{r3, r4, r5, r6, r7, lr}
 80007fa:	bf00      	nop
 80007fc:	bcf8      	pop	{r3, r4, r5, r6, r7}
 80007fe:	bc08      	pop	{r3}
 8000800:	469e      	mov	lr, r3
 8000802:	4770      	bx	lr
